; Function Attrs: nounwind uwtable
define internal noundef i32 @H5B2__cache_hdr_get_initial_load_size(ptr noundef readonly captures(none) %0, ptr noundef writeonly captures(none) %1) #0 {
  %3 = load i8, ptr @H5B2_init_g, align 1, !tbaa !3, !range !7, !noundef !8
  %4 = trunc nuw i8 %3 to i1
  %5 = load i8, ptr @H5_libterm_g, align 1, !range !7
  %6 = trunc nuw i8 %5 to i1
  %7 = xor i1 %6, true
  %8 = select i1 %4, i1 true, i1 %7
  br i1 %8, label %9, label %18, !prof !9

9:                                                ; preds = %2
  %10 = load ptr, ptr %0, align 8, !tbaa !10
  %11 = tail call zeroext i8 @H5F_sizeof_addr(ptr noundef %10) #6
  %12 = zext i8 %11 to i64
  %13 = load ptr, ptr %0, align 8, !tbaa !10
  %14 = tail call zeroext i8 @H5F_sizeof_size(ptr noundef %13) #6
  %15 = zext i8 %14 to i64
  %16 = add nuw nsw i64 %12, 22
  %17 = add nuw nsw i64 %16, %15
  store i64 %17, ptr %1, align 8, !tbaa !15
  br label %18

18:                                               ; preds = %9, %2
  ret i32 0
}